croundrobinson.multiresolution
MultiresolutionSeries
p0
((lp1
ccopy_reg
_reconstructor
p2
(croundrobinson.subseries
ResolutionSubseries
p3
c__builtin__
object
p4
Ntp5
Rp6
(dp7
S'B'
p8
g2
(croundrobinson.subseries
Buffer
p9
g4
Ntp10
Rp11
(dp12
S'tau'
p13
I0
sS's'
p14
croundrobinson.pytsms.timeseries
TimeSeries
p15
((lp16
tp17
Rp18
(dp19
bsS'f'
p20
croundrobinson.aggregators
maximum_zohe
p21
sS'delta'
p22
I10
sbsS'D'
p23
g2
(croundrobinson.subseries
Disc
p24
g4
Ntp25
Rp26
(dp27
g14
g15
((lp28
tp29
Rp30
(dp31
bsS'k'
p32
I2
sbsbag2
(g3
g4
Ntp33
Rp34
(dp35
g8
g2
(g9
g4
Ntp36
Rp37
(dp38
g13
I0
sg14
g15
((lp39
tp40
Rp41
(dp42
bsg20
croundrobinson.aggregators
mean_zohe
p43
sg22
I5
sbsg23
g2
(g24
g4
Ntp44
Rp45
(dp46
g14
g15
((lp47
tp48
Rp49
(dp50
bsg32
I4
sbsbatp51
Rp52
(dp53
b.