croundrobinson.multiresolution
MultiresolutionSeries
p0
((lp1
ccopy_reg
_reconstructor
p2
(croundrobinson.subseries
ResolutionSubseries
p3
c__builtin__
object
p4
Ntp5
Rp6
(dp7
S'B'
p8
g2
(croundrobinson.subseries
Buffer
p9
g4
Ntp10
Rp11
(dp12
S'tau'
p13
I1262300400
sS's'
p14
croundrobinson.pytsms.timeseries
TimeSeries
p15
((lp16
tp17
Rp18
(dp19
bsS'f'
p20
croundrobinson.aggregators
mean_zohe
p21
sS'delta'
p22
I1296000
sbsS'D'
p23
g2
(croundrobinson.subseries
Disc
p24
g4
Ntp25
Rp26
(dp27
g14
g15
((lp28
tp29
Rp30
(dp31
bsS'k'
p32
I12
sbsbag2
(g3
g4
Ntp33
Rp34
(dp35
g8
g2
(g9
g4
Ntp36
Rp37
(dp38
g13
I1262300400
sg14
g15
((lp39
tp40
Rp41
(dp42
bsg20
g21
sg22
I4320000
sbsg23
g2
(g24
g4
Ntp43
Rp44
(dp45
g14
g15
((lp46
tp47
Rp48
(dp49
bsg32
I12
sbsbag2
(g3
g4
Ntp50
Rp51
(dp52
g8
g2
(g9
g4
Ntp53
Rp54
(dp55
g13
I1262300400
sg14
g15
((lp56
tp57
Rp58
(dp59
bsg20
croundrobinson.aggregators
maximum_zohe
p60
sg22
I4320000
sbsg23
g2
(g24
g4
Ntp61
Rp62
(dp63
g14
g15
((lp64
tp65
Rp66
(dp67
bsg32
I12
sbsbag2
(g3
g4
Ntp68
Rp69
(dp70
g8
g2
(g9
g4
Ntp71
Rp72
(dp73
g13
I1262300400
sg14
g15
((lp74
tp75
Rp76
(dp77
bsg20
g60
sg22
I1296000
sbsg23
g2
(g24
g4
Ntp78
Rp79
(dp80
g14
g15
((lp81
tp82
Rp83
(dp84
bsg32
I12
sbsbag2
(g3
g4
Ntp85
Rp86
(dp87
g8
g2
(g9
g4
Ntp88
Rp89
(dp90
g13
I1262300400
sg14
g15
((lp91
tp92
Rp93
(dp94
bsg20
g21
sg22
I18000
sbsg23
g2
(g24
g4
Ntp95
Rp96
(dp97
g14
g15
((lp98
tp99
Rp100
(dp101
bsg32
I24
sbsbag2
(g3
g4
Ntp102
Rp103
(dp104
g8
g2
(g9
g4
Ntp105
Rp106
(dp107
g13
I1262300400
sg14
g15
((lp108
tp109
Rp110
(dp111
bsg20
g21
sg22
I172800
sbsg23
g2
(g24
g4
Ntp112
Rp113
(dp114
g14
g15
((lp115
tp116
Rp117
(dp118
bsg32
I20
sbsbatp119
Rp120
(dp121
b.